; Function Attrs: mustprogress nofree nounwind uwtable
define void @_ZNK2cv17CommandLineParser11printErrorsEv(ptr noundef nonnull readonly align 8 captures(none) dereferenceable(8) %0) local_unnamed_addr #16 align 2 {
  %2 = load ptr, ptr %0, align 8, !tbaa !3
  %3 = load i8, ptr %2, align 8, !tbaa !29, !range !55, !noundef !56
  %4 = trunc nuw i8 %3 to i1
  br i1 %4, label %5, label %11

5:                                                ; preds = %1
  %6 = getelementptr inbounds nuw i8, ptr %2, i64 8
  %7 = load ptr, ptr %6, align 8, !tbaa !13
  %8 = tail call i32 (ptr, ...) @printf(ptr noundef nonnull dereferenceable(1) @.str.14, ptr noundef %7)
  %9 = load ptr, ptr @stdout, align 8, !tbaa !126
  %10 = tail call i32 @fflush(ptr noundef %9)
  br label %11

11:                                               ; preds = %5, %1
  ret void
}